; Function Attrs: mustprogress nounwind uwtable
define internal void @_ZN12_GLOBAL__N_124AArch64TargetAsmStreamer23emitDirectiveVariantPCSEPN4llvm8MCSymbolE(ptr nocapture noundef nonnull readonly align 8 dereferenceable(32) %0, ptr nocapture noundef readonly %1) unnamed_addr #0 align 2 {
  %3 = getelementptr inbounds nuw i8, ptr %0, i64 24
  %4 = load ptr, ptr %3, align 8
  %5 = getelementptr inbounds nuw i8, ptr %4, i64 24
  %6 = load ptr, ptr %5, align 8
  %7 = getelementptr inbounds nuw i8, ptr %4, i64 32
  %8 = load ptr, ptr %7, align 8
  %9 = ptrtoint ptr %6 to i64
  %10 = ptrtoint ptr %8 to i64
  %11 = sub i64 %9, %10
  %12 = icmp ult i64 %11, 14
  br i1 %12, label %13, label %15

13:                                               ; preds = %2
  %14 = tail call noundef nonnull align 8 dereferenceable(48) ptr @_ZN4llvm11raw_ostream5writeEPKcm(ptr noundef nonnull align 8 dereferenceable(48) %4, ptr noundef nonnull @.str.7, i64 noundef 14) #12
  br label %_ZN4llvm11raw_ostreamlsEPKc.exit

15:                                               ; preds = %2
  tail call void @llvm.memcpy.p0.p0.i64(ptr noundef nonnull align 1 dereferenceable(14) %8, ptr noundef nonnull align 1 dereferenceable(14) @.str.7, i64 14, i1 false)
  %16 = load ptr, ptr %7, align 8
  %17 = getelementptr inbounds i8, ptr %16, i64 14
  store ptr %17, ptr %7, align 8
  br label %_ZN4llvm11raw_ostreamlsEPKc.exit

_ZN4llvm11raw_ostreamlsEPKc.exit:                 ; preds = %13, %15
  %.0.i.i = phi ptr [ %14, %13 ], [ %4, %15 ]
  %18 = getelementptr inbounds nuw i8, ptr %1, i64 8
  %19 = load i64, ptr %18, align 8
  %20 = and i64 %19, 1
  %.not.i = icmp eq i64 %20, 0
  br i1 %.not.i, label %_ZN4llvm11raw_ostreamlsENS_9StringRefE.exit, label %_ZNK4llvm8MCSymbol7getNameEv.exit

_ZNK4llvm8MCSymbol7getNameEv.exit:                ; preds = %_ZN4llvm11raw_ostreamlsEPKc.exit
  %21 = getelementptr inbounds i8, ptr %1, i64 -8
  %22 = load ptr, ptr %21, align 8
  %23 = getelementptr inbounds i8, ptr %22, i64 24
  %24 = load i64, ptr %22, align 8
  %25 = getelementptr inbounds nuw i8, ptr %.0.i.i, i64 24
  %26 = load ptr, ptr %25, align 8
  %27 = getelementptr inbounds nuw i8, ptr %.0.i.i, i64 32
  %28 = load ptr, ptr %27, align 8
  %29 = ptrtoint ptr %26 to i64
  %30 = ptrtoint ptr %28 to i64
  %31 = sub i64 %29, %30
  %32 = icmp ugt i64 %24, %31
  br i1 %32, label %33, label %35

33:                                               ; preds = %_ZNK4llvm8MCSymbol7getNameEv.exit
  %34 = tail call noundef nonnull align 8 dereferenceable(48) ptr @_ZN4llvm11raw_ostream5writeEPKcm(ptr noundef nonnull align 8 dereferenceable(48) %.0.i.i, ptr noundef nonnull %23, i64 noundef %24) #12
  br label %_ZN4llvm11raw_ostreamlsENS_9StringRefE.exit

35:                                               ; preds = %_ZNK4llvm8MCSymbol7getNameEv.exit
  %.not.i2 = icmp eq i64 %24, 0
  br i1 %.not.i2, label %_ZN4llvm11raw_ostreamlsENS_9StringRefE.exit, label %36

36:                                               ; preds = %35
  tail call void @llvm.memcpy.p0.p0.i64(ptr align 1 %28, ptr nonnull align 1 %23, i64 %24, i1 false)
  %37 = load ptr, ptr %27, align 8
  %38 = getelementptr inbounds i8, ptr %37, i64 %24
  store ptr %38, ptr %27, align 8
  br label %_ZN4llvm11raw_ostreamlsENS_9StringRefE.exit

_ZN4llvm11raw_ostreamlsENS_9StringRefE.exit:      ; preds = %_ZN4llvm11raw_ostreamlsEPKc.exit, %33, %35, %36
  %.0.i = phi ptr [ %34, %33 ], [ %.0.i.i, %36 ], [ %.0.i.i, %35 ], [ %.0.i.i, %_ZN4llvm11raw_ostreamlsEPKc.exit ]
  %39 = getelementptr inbounds nuw i8, ptr %.0.i, i64 24
  %40 = load ptr, ptr %39, align 8
  %41 = getelementptr inbounds nuw i8, ptr %.0.i, i64 32
  %42 = load ptr, ptr %41, align 8
  %43 = icmp eq ptr %40, %42
  br i1 %43, label %44, label %46

44:                                               ; preds = %_ZN4llvm11raw_ostreamlsENS_9StringRefE.exit
  %45 = tail call noundef nonnull align 8 dereferenceable(48) ptr @_ZN4llvm11raw_ostream5writeEPKcm(ptr noundef nonnull align 8 dereferenceable(48) %.0.i, ptr noundef nonnull @.str.6, i64 noundef 1) #12
  br label %_ZN4llvm11raw_ostreamlsEPKc.exit5

46:                                               ; preds = %_ZN4llvm11raw_ostreamlsENS_9StringRefE.exit
  store i8 10, ptr %42, align 1
  %47 = load ptr, ptr %41, align 8
  %48 = getelementptr inbounds i8, ptr %47, i64 1
  store ptr %48, ptr %41, align 8
  br label %_ZN4llvm11raw_ostreamlsEPKc.exit5

_ZN4llvm11raw_ostreamlsEPKc.exit5:                ; preds = %44, %46
  ret void
}